/*
 * Intel ACPI Component Architecture
 * AML/ASL+ Disassembler version 20250807 (32-bit version)
 * Copyright (c) 2000 - 2025 Intel Corporation
 * 
 * Disassembly of fpdt.dat
 *
 * ACPI Data Table [FPDT]
 *
 * Format: [HexOffset DecimalOffset ByteLength]  FieldName : FieldValue (in hex)
 */

[000h 0000 004h]                   Signature : "FPDT"    [Firmware Performance Data Table]
[004h 0004 004h]                Table Length : 00000034
[008h 0008 001h]                    Revision : 01
[009h 0009 001h]                    Checksum : A1
[00Ah 0010 006h]                      Oem ID : "LENOVO"
[010h 0016 008h]                Oem Table ID : "TC-O6N  "
[018h 0024 004h]                Oem Revision : 00001410
[01Ch 0028 004h]             Asl Compiler ID : "QCOM"
[020h 0032 004h]       Asl Compiler Revision : 00000001


[024h 0036 002h]               Subtable Type : 0000
[026h 0038 001h]                      Length : 10
[027h 0039 001h]                    Revision : 01
[028h 0040 004h]                    Reserved : 00000000
[02Ch 0044 008h]    FPDT Boot Record Address : 00000000D468B000

Raw Table Data: Length 52 (0x34)

    0000: 46 50 44 54 34 00 00 00 01 A1 4C 45 4E 4F 56 4F  // FPDT4.....LENOVO
    0010: 54 43 2D 4F 36 4E 20 20 10 14 00 00 51 43 4F 4D  // TC-O6N  ....QCOM
    0020: 01 00 00 00 00 00 10 01 00 00 00 00 00 B0 68 D4  // ..............h.
    0030: 00 00 00 00                                      // ....
