/*
 * Intel ACPI Component Architecture
 * AML/ASL+ Disassembler version 20230628 (64-bit version)
 * Copyright (c) 2000 - 2023 Intel Corporation
 * 
 * Disassembly of bgrt.dat, Tue Apr 29 13:31:33 2025
 *
 * ACPI Data Table [BGRT]
 *
 * Format: [HexOffset DecimalOffset ByteLength]  FieldName : FieldValue (in hex)
 */

[000h 0000 004h]                   Signature : "BGRT"    [Boot Graphics Resource Table]
[004h 0004 004h]                Table Length : 00000038
[008h 0008 001h]                    Revision : 01
[009h 0009 001h]                    Checksum : 9B
[00Ah 0010 006h]                      Oem ID : "HPQOEM"
[010h 0016 008h]                Oem Table ID : "INSYDE  "
[018h 0024 004h]                Oem Revision : 00000001
[01Ch 0028 004h]             Asl Compiler ID : "HP  "
[020h 0032 004h]       Asl Compiler Revision : 00000001

[024h 0036 002h]                     Version : 0001
[026h 0038 001h]      Status (decoded below) : 00
                                   Displayed : 0
                          Orientation Offset : 0
[027h 0039 001h]                  Image Type : 00
[028h 0040 008h]               Image Address : 00000000CB3C4018
[030h 0048 004h]               Image OffsetX : 000002D0
[034h 0052 004h]               Image OffsetY : 0000011A

Raw Table Data: Length 56 (0x38)

    0000: 42 47 52 54 38 00 00 00 01 9B 48 50 51 4F 45 4D  // BGRT8.....HPQOEM
    0010: 49 4E 53 59 44 45 20 20 01 00 00 00 48 50 20 20  // INSYDE  ....HP  
    0020: 01 00 00 00 01 00 00 00 18 40 3C CB 00 00 00 00  // .........@<.....
    0030: D0 02 00 00 1A 01 00 00                          // ........
