/*
 * Intel ACPI Component Architecture
 * AML/ASL+ Disassembler version 20260408 (32-bit version)
 * Copyright (c) 2000 - 2026 Intel Corporation
 * 
 * Disassembly of pptt.dat
 *
 * ACPI Data Table [PPTT]
 *
 * Format: [HexOffset DecimalOffset ByteLength]  FieldName : FieldValue (in hex)
 */

[000h 0000 004h]                   Signature : "PPTT"    [Processor Properties Topology Table]
[004h 0004 004h]                Table Length : 000002E2
[008h 0008 001h]                    Revision : 01
[009h 0009 001h]                    Checksum : 9B
[00Ah 0010 006h]                      Oem ID : "LENOVO"
[010h 0016 008h]                Oem Table ID : "CB-01   "
[018h 0024 004h]                Oem Revision : 00008480
[01Ch 0028 004h]             Asl Compiler ID : "QCOM"
[020h 0032 004h]       Asl Compiler Revision : 00000001


[024h 0036 001h]               Subtable Type : 02 [ID]
[025h 0037 001h]                      Length : 1E
[026h 0038 002h]                    Reserved : 0000
[028h 0040 004h]                   Vendor ID : 4D4F4351
[02Ch 0044 008h]                   Level1 ID : 00000000000000A1
[034h 0052 008h]                   Level2 ID : 00000000000002BA
[03Ch 0060 002h]              Major revision : 0002
[03Eh 0062 002h]              Minor revision : 0000
[040h 0064 002h]               Spin revision : 0001

[042h 0066 001h]               Subtable Type : 00 [Processor Hierarchy Node]
[043h 0067 001h]                      Length : 18
[044h 0068 002h]                    Reserved : 0000
[046h 0070 004h]       Flags (decoded below) : 00000001
                            Physical package : 1
                     ACPI Processor ID valid : 0
                       Processor is a thread : 0
                              Node is a leaf : 0
                    Identical Implementation : 0
[04Ah 0074 004h]                      Parent : 00000000
[04Eh 0078 004h]           ACPI Processor ID : 00000000
[052h 0082 004h]     Private Resource Number : 00000001
[056h 0086 004h]            Private Resource : 00000024

[05Ah 0090 001h]               Subtable Type : 01 [Cache Type]
[05Bh 0091 001h]                      Length : 18
[05Ch 0092 002h]                    Reserved : 0000
[05Eh 0094 004h]       Flags (decoded below) : 00000000
                                  Size valid : 0
                        Number of Sets valid : 0
                         Associativity valid : 0
                       Allocation Type valid : 0
                            Cache Type valid : 0
                          Write Policy valid : 0
                             Line Size valid : 0
                              Cache ID valid : 0
[062h 0098 004h]         Next Level of Cache : 00000000
[066h 0102 004h]                        Size : 00000000
[06Ah 0106 004h]              Number of Sets : 00000000
[06Eh 0110 001h]               Associativity : 00
[06Fh 0111 001h]                  Attributes : 00
                             Allocation Type : 0
                                  Cache Type : 0
                                Write Policy : 0
[070h 0112 002h]                   Line Size : 0000

[072h 0114 001h]               Subtable Type : 00 [Processor Hierarchy Node]
[073h 0115 001h]                      Length : 18
[074h 0116 002h]                    Reserved : 0000
[076h 0118 004h]       Flags (decoded below) : 00000000
                            Physical package : 0
                     ACPI Processor ID valid : 0
                       Processor is a thread : 0
                              Node is a leaf : 0
                    Identical Implementation : 0
[07Ah 0122 004h]                      Parent : 00000042
[07Eh 0126 004h]           ACPI Processor ID : 00000000
[082h 0130 004h]     Private Resource Number : 00000001
[086h 0134 004h]            Private Resource : 0000005A

[08Ah 0138 001h]               Subtable Type : 00 [Processor Hierarchy Node]
[08Bh 0139 001h]                      Length : 18
[08Ch 0140 002h]                    Reserved : 0000
[08Eh 0142 004h]       Flags (decoded below) : 00000000
                            Physical package : 0
                     ACPI Processor ID valid : 0
                       Processor is a thread : 0
                              Node is a leaf : 0
                    Identical Implementation : 0
[092h 0146 004h]                      Parent : 00000042
[096h 0150 004h]           ACPI Processor ID : 00000000
[09Ah 0154 004h]     Private Resource Number : 00000001
[09Eh 0158 004h]            Private Resource : 0000005A

[0A2h 0162 001h]               Subtable Type : 00 [Processor Hierarchy Node]
[0A3h 0163 001h]                      Length : 18
[0A4h 0164 002h]                    Reserved : 0000
[0A6h 0166 004h]       Flags (decoded below) : 00000000
                            Physical package : 0
                     ACPI Processor ID valid : 0
                       Processor is a thread : 0
                              Node is a leaf : 0
                    Identical Implementation : 0
[0AAh 0170 004h]                      Parent : 00000042
[0AEh 0174 004h]           ACPI Processor ID : 00000000
[0B2h 0178 004h]     Private Resource Number : 00000001
[0B6h 0182 004h]            Private Resource : 0000005A

[0BAh 0186 001h]               Subtable Type : 01 [Cache Type]
[0BBh 0187 001h]                      Length : 18
[0BCh 0188 002h]                    Reserved : 0000
[0BEh 0190 004h]       Flags (decoded below) : 00000000
                                  Size valid : 0
                        Number of Sets valid : 0
                         Associativity valid : 0
                       Allocation Type valid : 0
                            Cache Type valid : 0
                          Write Policy valid : 0
                             Line Size valid : 0
                              Cache ID valid : 0
[0C2h 0194 004h]         Next Level of Cache : 00000000
[0C6h 0198 004h]                        Size : 00000000
[0CAh 0202 004h]              Number of Sets : 00000000
[0CEh 0206 001h]               Associativity : 00
[0CFh 0207 001h]                  Attributes : 00
                             Allocation Type : 0
                                  Cache Type : 0
                                Write Policy : 0
[0D0h 0208 002h]                   Line Size : 0000

[0D2h 0210 001h]               Subtable Type : 01 [Cache Type]
[0D3h 0211 001h]                      Length : 18
[0D4h 0212 002h]                    Reserved : 0000
[0D6h 0214 004h]       Flags (decoded below) : 00000000
                                  Size valid : 0
                        Number of Sets valid : 0
                         Associativity valid : 0
                       Allocation Type valid : 0
                            Cache Type valid : 0
                          Write Policy valid : 0
                             Line Size valid : 0
                              Cache ID valid : 0
[0DAh 0218 004h]         Next Level of Cache : 00000000
[0DEh 0222 004h]                        Size : 00000000
[0E2h 0226 004h]              Number of Sets : 00000000
[0E6h 0230 001h]               Associativity : 00
[0E7h 0231 001h]                  Attributes : 00
                             Allocation Type : 0
                                  Cache Type : 0
                                Write Policy : 0
[0E8h 0232 002h]                   Line Size : 0000

[0EAh 0234 001h]               Subtable Type : 00 [Processor Hierarchy Node]
[0EBh 0235 001h]                      Length : 1C
[0ECh 0236 002h]                    Reserved : 0000
[0EEh 0238 004h]       Flags (decoded below) : 00000002
                            Physical package : 0
                     ACPI Processor ID valid : 1
                       Processor is a thread : 0
                              Node is a leaf : 0
                    Identical Implementation : 0
[0F2h 0242 004h]                      Parent : 00000072
[0F6h 0246 004h]           ACPI Processor ID : 00000000
[0FAh 0250 004h]     Private Resource Number : 00000002
[0FEh 0254 004h]            Private Resource : 000000BA
[102h 0258 004h]            Private Resource : 000000D2

[106h 0262 001h]               Subtable Type : 00 [Processor Hierarchy Node]
[107h 0263 001h]                      Length : 1C
[108h 0264 002h]                    Reserved : 0000
[10Ah 0266 004h]       Flags (decoded below) : 00000002
                            Physical package : 0
                     ACPI Processor ID valid : 1
                       Processor is a thread : 0
                              Node is a leaf : 0
                    Identical Implementation : 0
[10Eh 0270 004h]                      Parent : 00000072
[112h 0274 004h]           ACPI Processor ID : 00000001
[116h 0278 004h]     Private Resource Number : 00000002
[11Ah 0282 004h]            Private Resource : 000000BA
[11Eh 0286 004h]            Private Resource : 000000D2

[122h 0290 001h]               Subtable Type : 00 [Processor Hierarchy Node]
[123h 0291 001h]                      Length : 1C
[124h 0292 002h]                    Reserved : 0000
[126h 0294 004h]       Flags (decoded below) : 00000002
                            Physical package : 0
                     ACPI Processor ID valid : 1
                       Processor is a thread : 0
                              Node is a leaf : 0
                    Identical Implementation : 0
[12Ah 0298 004h]                      Parent : 00000072
[12Eh 0302 004h]           ACPI Processor ID : 00000002
[132h 0306 004h]     Private Resource Number : 00000002
[136h 0310 004h]            Private Resource : 000000BA
[13Ah 0314 004h]            Private Resource : 000000D2

[13Eh 0318 001h]               Subtable Type : 00 [Processor Hierarchy Node]
[13Fh 0319 001h]                      Length : 1C
[140h 0320 002h]                    Reserved : 0000
[142h 0322 004h]       Flags (decoded below) : 00000002
                            Physical package : 0
                     ACPI Processor ID valid : 1
                       Processor is a thread : 0
                              Node is a leaf : 0
                    Identical Implementation : 0
[146h 0326 004h]                      Parent : 00000072
[14Ah 0330 004h]           ACPI Processor ID : 00000003
[14Eh 0334 004h]     Private Resource Number : 00000002
[152h 0338 004h]            Private Resource : 000000BA
[156h 0342 004h]            Private Resource : 000000D2

[15Ah 0346 001h]               Subtable Type : 00 [Processor Hierarchy Node]
[15Bh 0347 001h]                      Length : 1C
[15Ch 0348 002h]                    Reserved : 0000
[15Eh 0350 004h]       Flags (decoded below) : 00000002
                            Physical package : 0
                     ACPI Processor ID valid : 1
                       Processor is a thread : 0
                              Node is a leaf : 0
                    Identical Implementation : 0
[162h 0354 004h]                      Parent : 00000072
[166h 0358 004h]           ACPI Processor ID : 00000004
[16Ah 0362 004h]     Private Resource Number : 00000002
[16Eh 0366 004h]            Private Resource : 000000BA
[172h 0370 004h]            Private Resource : 000000D2

[176h 0374 001h]               Subtable Type : 00 [Processor Hierarchy Node]
[177h 0375 001h]                      Length : 1C
[178h 0376 002h]                    Reserved : 0000
[17Ah 0378 004h]       Flags (decoded below) : 00000002
                            Physical package : 0
                     ACPI Processor ID valid : 1
                       Processor is a thread : 0
                              Node is a leaf : 0
                    Identical Implementation : 0
[17Eh 0382 004h]                      Parent : 00000072
[182h 0386 004h]           ACPI Processor ID : 00000005
[186h 0390 004h]     Private Resource Number : 00000002
[18Ah 0394 004h]            Private Resource : 000000BA
[18Eh 0398 004h]            Private Resource : 000000D2

[192h 0402 001h]               Subtable Type : 00 [Processor Hierarchy Node]
[193h 0403 001h]                      Length : 1C
[194h 0404 002h]                    Reserved : 0000
[196h 0406 004h]       Flags (decoded below) : 00000002
                            Physical package : 0
                     ACPI Processor ID valid : 1
                       Processor is a thread : 0
                              Node is a leaf : 0
                    Identical Implementation : 0
[19Ah 0410 004h]                      Parent : 0000008A
[19Eh 0414 004h]           ACPI Processor ID : 00000006
[1A2h 0418 004h]     Private Resource Number : 00000002
[1A6h 0422 004h]            Private Resource : 000000BA
[1AAh 0426 004h]            Private Resource : 000000D2

[1AEh 0430 001h]               Subtable Type : 00 [Processor Hierarchy Node]
[1AFh 0431 001h]                      Length : 1C
[1B0h 0432 002h]                    Reserved : 0000
[1B2h 0434 004h]       Flags (decoded below) : 00000002
                            Physical package : 0
                     ACPI Processor ID valid : 1
                       Processor is a thread : 0
                              Node is a leaf : 0
                    Identical Implementation : 0
[1B6h 0438 004h]                      Parent : 0000008A
[1BAh 0442 004h]           ACPI Processor ID : 00000007
[1BEh 0446 004h]     Private Resource Number : 00000002
[1C2h 0450 004h]            Private Resource : 000000BA
[1C6h 0454 004h]            Private Resource : 000000D2

[1CAh 0458 001h]               Subtable Type : 00 [Processor Hierarchy Node]
[1CBh 0459 001h]                      Length : 1C
[1CCh 0460 002h]                    Reserved : 0000
[1CEh 0462 004h]       Flags (decoded below) : 00000002
                            Physical package : 0
                     ACPI Processor ID valid : 1
                       Processor is a thread : 0
                              Node is a leaf : 0
                    Identical Implementation : 0
[1D2h 0466 004h]                      Parent : 0000008A
[1D6h 0470 004h]           ACPI Processor ID : 00000008
[1DAh 0474 004h]     Private Resource Number : 00000002
[1DEh 0478 004h]            Private Resource : 000000BA
[1E2h 0482 004h]            Private Resource : 000000D2

[1E6h 0486 001h]               Subtable Type : 00 [Processor Hierarchy Node]
[1E7h 0487 001h]                      Length : 1C
[1E8h 0488 002h]                    Reserved : 0000
[1EAh 0490 004h]       Flags (decoded below) : 00000002
                            Physical package : 0
                     ACPI Processor ID valid : 1
                       Processor is a thread : 0
                              Node is a leaf : 0
                    Identical Implementation : 0
[1EEh 0494 004h]                      Parent : 0000008A
[1F2h 0498 004h]           ACPI Processor ID : 00000009
[1F6h 0502 004h]     Private Resource Number : 00000002
[1FAh 0506 004h]            Private Resource : 000000BA
[1FEh 0510 004h]            Private Resource : 000000D2

[202h 0514 001h]               Subtable Type : 00 [Processor Hierarchy Node]
[203h 0515 001h]                      Length : 1C
[204h 0516 002h]                    Reserved : 0000
[206h 0518 004h]       Flags (decoded below) : 00000002
                            Physical package : 0
                     ACPI Processor ID valid : 1
                       Processor is a thread : 0
                              Node is a leaf : 0
                    Identical Implementation : 0
[20Ah 0522 004h]                      Parent : 0000008A
[20Eh 0526 004h]           ACPI Processor ID : 0000000A
[212h 0530 004h]     Private Resource Number : 00000002
[216h 0534 004h]            Private Resource : 000000BA
[21Ah 0538 004h]            Private Resource : 000000D2

[21Eh 0542 001h]               Subtable Type : 00 [Processor Hierarchy Node]
[21Fh 0543 001h]                      Length : 1C
[220h 0544 002h]                    Reserved : 0000
[222h 0546 004h]       Flags (decoded below) : 00000002
                            Physical package : 0
                     ACPI Processor ID valid : 1
                       Processor is a thread : 0
                              Node is a leaf : 0
                    Identical Implementation : 0
[226h 0550 004h]                      Parent : 0000008A
[22Ah 0554 004h]           ACPI Processor ID : 0000000B
[22Eh 0558 004h]     Private Resource Number : 00000002
[232h 0562 004h]            Private Resource : 000000BA
[236h 0566 004h]            Private Resource : 000000D2

[23Ah 0570 001h]               Subtable Type : 00 [Processor Hierarchy Node]
[23Bh 0571 001h]                      Length : 1C
[23Ch 0572 002h]                    Reserved : 0000
[23Eh 0574 004h]       Flags (decoded below) : 00000002
                            Physical package : 0
                     ACPI Processor ID valid : 1
                       Processor is a thread : 0
                              Node is a leaf : 0
                    Identical Implementation : 0
[242h 0578 004h]                      Parent : 000000A2
[246h 0582 004h]           ACPI Processor ID : 0000000C
[24Ah 0586 004h]     Private Resource Number : 00000002
[24Eh 0590 004h]            Private Resource : 000000BA
[252h 0594 004h]            Private Resource : 000000D2

[256h 0598 001h]               Subtable Type : 00 [Processor Hierarchy Node]
[257h 0599 001h]                      Length : 1C
[258h 0600 002h]                    Reserved : 0000
[25Ah 0602 004h]       Flags (decoded below) : 00000002
                            Physical package : 0
                     ACPI Processor ID valid : 1
                       Processor is a thread : 0
                              Node is a leaf : 0
                    Identical Implementation : 0
[25Eh 0606 004h]                      Parent : 000000A2
[262h 0610 004h]           ACPI Processor ID : 0000000D
[266h 0614 004h]     Private Resource Number : 00000002
[26Ah 0618 004h]            Private Resource : 000000BA
[26Eh 0622 004h]            Private Resource : 000000D2

[272h 0626 001h]               Subtable Type : 00 [Processor Hierarchy Node]
[273h 0627 001h]                      Length : 1C
[274h 0628 002h]                    Reserved : 0000
[276h 0630 004h]       Flags (decoded below) : 00000002
                            Physical package : 0
                     ACPI Processor ID valid : 1
                       Processor is a thread : 0
                              Node is a leaf : 0
                    Identical Implementation : 0
[27Ah 0634 004h]                      Parent : 000000A2
[27Eh 0638 004h]           ACPI Processor ID : 0000000E
[282h 0642 004h]     Private Resource Number : 00000002
[286h 0646 004h]            Private Resource : 000000BA
[28Ah 0650 004h]            Private Resource : 000000D2

[28Eh 0654 001h]               Subtable Type : 00 [Processor Hierarchy Node]
[28Fh 0655 001h]                      Length : 1C
[290h 0656 002h]                    Reserved : 0000
[292h 0658 004h]       Flags (decoded below) : 00000002
                            Physical package : 0
                     ACPI Processor ID valid : 1
                       Processor is a thread : 0
                              Node is a leaf : 0
                    Identical Implementation : 0
[296h 0662 004h]                      Parent : 000000A2
[29Ah 0666 004h]           ACPI Processor ID : 0000000F
[29Eh 0670 004h]     Private Resource Number : 00000002
[2A2h 0674 004h]            Private Resource : 000000BA
[2A6h 0678 004h]            Private Resource : 000000D2

[2AAh 0682 001h]               Subtable Type : 00 [Processor Hierarchy Node]
[2ABh 0683 001h]                      Length : 1C
[2ACh 0684 002h]                    Reserved : 0000
[2AEh 0686 004h]       Flags (decoded below) : 00000002
                            Physical package : 0
                     ACPI Processor ID valid : 1
                       Processor is a thread : 0
                              Node is a leaf : 0
                    Identical Implementation : 0
[2B2h 0690 004h]                      Parent : 000000A2
[2B6h 0694 004h]           ACPI Processor ID : 00000010
[2BAh 0698 004h]     Private Resource Number : 00000002
[2BEh 0702 004h]            Private Resource : 000000BA
[2C2h 0706 004h]            Private Resource : 000000D2

[2C6h 0710 001h]               Subtable Type : 00 [Processor Hierarchy Node]
[2C7h 0711 001h]                      Length : 1C
[2C8h 0712 002h]                    Reserved : 0000
[2CAh 0714 004h]       Flags (decoded below) : 00000002
                            Physical package : 0
                     ACPI Processor ID valid : 1
                       Processor is a thread : 0
                              Node is a leaf : 0
                    Identical Implementation : 0
[2CEh 0718 004h]                      Parent : 000000A2
[2D2h 0722 004h]           ACPI Processor ID : 00000011
[2D6h 0726 004h]     Private Resource Number : 00000002
[2DAh 0730 004h]            Private Resource : 000000BA
[2DEh 0734 004h]            Private Resource : 000000D2

Raw Table Data: Length 738 (0x2E2)

    0000: 50 50 54 54 E2 02 00 00 01 9B 4C 45 4E 4F 56 4F  // PPTT......LENOVO
    0010: 43 42 2D 30 31 20 20 20 80 84 00 00 51 43 4F 4D  // CB-01   ....QCOM
    0020: 01 00 00 00 02 1E 00 00 51 43 4F 4D A1 00 00 00  // ........QCOM....
    0030: 00 00 00 00 BA 02 00 00 00 00 00 00 02 00 00 00  // ................
    0040: 01 00 00 18 00 00 01 00 00 00 00 00 00 00 00 00  // ................
    0050: 00 00 01 00 00 00 24 00 00 00 01 18 00 00 00 00  // ......$.........
    0060: 00 00 00 00 00 00 00 00 00 00 00 00 00 00 00 00  // ................
    0070: 00 00 00 18 00 00 00 00 00 00 42 00 00 00 00 00  // ..........B.....
    0080: 00 00 01 00 00 00 5A 00 00 00 00 18 00 00 00 00  // ......Z.........
    0090: 00 00 42 00 00 00 00 00 00 00 01 00 00 00 5A 00  // ..B...........Z.
    00A0: 00 00 00 18 00 00 00 00 00 00 42 00 00 00 00 00  // ..........B.....
    00B0: 00 00 01 00 00 00 5A 00 00 00 01 18 00 00 00 00  // ......Z.........
    00C0: 00 00 00 00 00 00 00 00 00 00 00 00 00 00 00 00  // ................
    00D0: 00 00 01 18 00 00 00 00 00 00 00 00 00 00 00 00  // ................
    00E0: 00 00 00 00 00 00 00 00 00 00 00 1C 00 00 02 00  // ................
    00F0: 00 00 72 00 00 00 00 00 00 00 02 00 00 00 BA 00  // ..r.............
    0100: 00 00 D2 00 00 00 00 1C 00 00 02 00 00 00 72 00  // ..............r.
    0110: 00 00 01 00 00 00 02 00 00 00 BA 00 00 00 D2 00  // ................
    0120: 00 00 00 1C 00 00 02 00 00 00 72 00 00 00 02 00  // ..........r.....
    0130: 00 00 02 00 00 00 BA 00 00 00 D2 00 00 00 00 1C  // ................
    0140: 00 00 02 00 00 00 72 00 00 00 03 00 00 00 02 00  // ......r.........
    0150: 00 00 BA 00 00 00 D2 00 00 00 00 1C 00 00 02 00  // ................
    0160: 00 00 72 00 00 00 04 00 00 00 02 00 00 00 BA 00  // ..r.............
    0170: 00 00 D2 00 00 00 00 1C 00 00 02 00 00 00 72 00  // ..............r.
    0180: 00 00 05 00 00 00 02 00 00 00 BA 00 00 00 D2 00  // ................
    0190: 00 00 00 1C 00 00 02 00 00 00 8A 00 00 00 06 00  // ................
    01A0: 00 00 02 00 00 00 BA 00 00 00 D2 00 00 00 00 1C  // ................
    01B0: 00 00 02 00 00 00 8A 00 00 00 07 00 00 00 02 00  // ................
    01C0: 00 00 BA 00 00 00 D2 00 00 00 00 1C 00 00 02 00  // ................
    01D0: 00 00 8A 00 00 00 08 00 00 00 02 00 00 00 BA 00  // ................
    01E0: 00 00 D2 00 00 00 00 1C 00 00 02 00 00 00 8A 00  // ................
    01F0: 00 00 09 00 00 00 02 00 00 00 BA 00 00 00 D2 00  // ................
    0200: 00 00 00 1C 00 00 02 00 00 00 8A 00 00 00 0A 00  // ................
    0210: 00 00 02 00 00 00 BA 00 00 00 D2 00 00 00 00 1C  // ................
    0220: 00 00 02 00 00 00 8A 00 00 00 0B 00 00 00 02 00  // ................
    0230: 00 00 BA 00 00 00 D2 00 00 00 00 1C 00 00 02 00  // ................
    0240: 00 00 A2 00 00 00 0C 00 00 00 02 00 00 00 BA 00  // ................
    0250: 00 00 D2 00 00 00 00 1C 00 00 02 00 00 00 A2 00  // ................
    0260: 00 00 0D 00 00 00 02 00 00 00 BA 00 00 00 D2 00  // ................
    0270: 00 00 00 1C 00 00 02 00 00 00 A2 00 00 00 0E 00  // ................
    0280: 00 00 02 00 00 00 BA 00 00 00 D2 00 00 00 00 1C  // ................
    0290: 00 00 02 00 00 00 A2 00 00 00 0F 00 00 00 02 00  // ................
    02A0: 00 00 BA 00 00 00 D2 00 00 00 00 1C 00 00 02 00  // ................
    02B0: 00 00 A2 00 00 00 10 00 00 00 02 00 00 00 BA 00  // ................
    02C0: 00 00 D2 00 00 00 00 1C 00 00 02 00 00 00 A2 00  // ................
    02D0: 00 00 11 00 00 00 02 00 00 00 BA 00 00 00 D2 00  // ................
    02E0: 00 00                                            // ..
