/*
 * Intel ACPI Component Architecture
 * AML/ASL+ Disassembler version 20260408 (32-bit version)
 * Copyright (c) 2000 - 2026 Intel Corporation
 * 
 * Disassembly of uefi.dat
 *
 * ACPI Data Table [UEFI]
 *
 * Format: [HexOffset DecimalOffset ByteLength]  FieldName : FieldValue (in hex)
 */

[000h 0000 004h]                   Signature : "UEFI"    [UEFI Boot Optimization Table]
[004h 0004 004h]                Table Length : 000001B6
[008h 0008 001h]                    Revision : 01
[009h 0009 001h]                    Checksum : C5
[00Ah 0010 006h]                      Oem ID : "LENOVO"
[010h 0016 008h]                Oem Table ID : "CB-01   "
[018h 0024 004h]                Oem Revision : 00000001
[01Ch 0028 004h]             Asl Compiler ID : "ACPI"
[020h 0032 004h]       Asl Compiler Revision : 00040000

[024h 0036 010h]             UUID Identifier : 9D4BF935-A674-4710-BA02-BF0AA1758C7B
[034h 0052 002h]                 Data Offset : 0036

Raw Table Data: Length 438 (0x1B6)

    0000: 55 45 46 49 B6 01 00 00 01 C5 4C 45 4E 4F 56 4F  // UEFI......LENOVO
    0010: 43 42 2D 30 31 20 20 20 01 00 00 00 41 43 50 49  // CB-01   ....ACPI
    0020: 00 00 04 00 35 F9 4B 9D 74 A6 10 47 BA 02 BF 0A  // ....5.K.t..G....
    0030: A1 75 8C 7B 36 00 24 42 56 44 54 24 00 00 00 24  // .u.{6.$BVDT$...$
    0040: 00 00 00 24 54 43 43 4E 33 35 57 57 00 00 00 00  // ...$TCCN35WW....
    0050: 00 00 00 00 00 00 00 00 00 00 00 00 24 47 6C 79  // ............$Gly
    0060: 6D 75 72 00 00 00 00 00 00 00 00 00 00 00 00 00  // mur.............
    0070: 00 00 00 00 00 00 24 30 35 2E 36 32 2E 31 30 2E  // ......$05.62.10.
    0080: 30 30 31 34 00 00 00 00 00 00 00 00 00 00 00 00  // 0014............
    0090: 00 00 00 00 00 00 00 00 00 00 00 00 FF FF FF FF  // ................
    00A0: FF FF FF FF FF FF FF FF FF FF FF FF FF FF FF FF  // ................
    00B0: FF FF FF FF FF FF FF FF FF FF FF FF FF FF FF FF  // ................
    00C0: FF FF FF FF FF FF FF FF FF FF FF FF FF FF FF FF  // ................
    00D0: FF FF FF FF FF FF FF FF FF FF FF FF FF FF FF FF  // ................
    00E0: FF FF FF FF FF FF FF FF FF FF FF FF FF FF FF FF  // ................
    00F0: FF FF FF FF FF FF FF FF FF FF FF FF FF FF FF FF  // ................
    0100: FF FF FF FF FF FF FF FF FF FF FF FF FF FF FF FF  // ................
    0110: FF FF FF FF FF FF FF FF FF FF FF FF FF FF FF FF  // ................
    0120: FF FF FF FF FF FF FF FF FF FF FF FF FF FF FF FF  // ................
    0130: FF FF FF FF FF FF FF FF FF FF FF FF FF FF FF FF  // ................
    0140: FF FF FF FF FF FF FF FF FF FF FF FF FF FF FF FF  // ................
    0150: FF FF FF FF FF FF FF FF FF FF FF FF FF FF FF FF  // ................
    0160: FF FF FF FF FF 24 42 4D 45 24 00 60 67 A7 00 10  // .....$BME$.`g...
    0170: 00 00 24 00 00 00 00 00 00 00 00 24 00 FF FF FF  // ..$........$....
    0180: FF FF FF FF FF 24 5F 4D 53 43 5F 56 45 52 3D 6C  // .....$_MSC_VER=l
    0190: 07 24 52 44 41 54 45 26 03 20 24 51 55 49 52 4B  // .$RDATE&. $QUIRK
    01A0: 0E 00 00 00 01 00 00 00 80 01 00 00 24 45 4E 44  // ............$END
    01B0: 4F 46 42 56 44 54                                // OFBVDT
