/*
 * Intel ACPI Component Architecture
 * AML/ASL+ Disassembler version 20250807 (32-bit version)
 * Copyright (c) 2000 - 2025 Intel Corporation
 * 
 * Disassembly of bgrt.dat
 *
 * ACPI Data Table [BGRT]
 *
 * Format: [HexOffset DecimalOffset ByteLength]  FieldName : FieldValue (in hex)
 */

[000h 0000 004h]                   Signature : "BGRT"    [Boot Graphics Resource Table]
[004h 0004 004h]                Table Length : 00000038
[008h 0008 001h]                    Revision : 01
[009h 0009 001h]                    Checksum : 79
[00Ah 0010 006h]                      Oem ID : "QCOM  "
[010h 0016 008h]                Oem Table ID : "QCOMEDK2"
[018h 0024 004h]                Oem Revision : 00008280
[01Ch 0028 004h]             Asl Compiler ID : "QCOM"
[020h 0032 004h]       Asl Compiler Revision : 00000001

[024h 0036 002h]                     Version : 0001
[026h 0038 001h]      Status (decoded below) : 06
                                   Displayed : 0
                          Orientation Offset : 3
[027h 0039 001h]                  Image Type : 00
[028h 0040 008h]               Image Address : 00000000FC072018
[030h 0048 004h]               Image OffsetX : 00000380
[034h 0052 004h]               Image OffsetY : 0000027F

Raw Table Data: Length 56 (0x38)

    0000: 42 47 52 54 38 00 00 00 01 79 51 43 4F 4D 20 20  // BGRT8....yQCOM  
    0010: 51 43 4F 4D 45 44 4B 32 80 82 00 00 51 43 4F 4D  // QCOMEDK2....QCOM
    0020: 01 00 00 00 01 00 06 00 18 20 07 FC 00 00 00 00  // ......... ......
    0030: 80 03 00 00 7F 02 00 00                          // ........
