/*
 * Intel ACPI Component Architecture
 * AML/ASL+ Disassembler version 20240827 (32-bit version)
 * Copyright (c) 2000 - 2023 Intel Corporation
 * 
 * Disassembly of D:/build/misc/qualcomm-snapdragon-dev-kit/acpi/bgrt.dat
 *
 * ACPI Data Table [BGRT]
 *
 * Format: [HexOffset DecimalOffset ByteLength]  FieldName : FieldValue (in hex)
 */

[000h 0000 004h]                   Signature : "BGRT"    [Boot Graphics Resource Table]
[004h 0004 004h]                Table Length : 00000038
[008h 0008 001h]                    Revision : 01
[009h 0009 001h]                    Checksum : EB
[00Ah 0010 006h]                      Oem ID : "QCOM  "
[010h 0016 008h]                Oem Table ID : "QCOMEDK2"
[018h 0024 004h]                Oem Revision : 00008380
[01Ch 0028 004h]             Asl Compiler ID : "QCOM"
[020h 0032 004h]       Asl Compiler Revision : 00000001

[024h 0036 002h]                     Version : 0001
[026h 0038 001h]      Status (decoded below) : 00
                                   Displayed : 0
                          Orientation Offset : 0
[027h 0039 001h]                  Image Type : 00
[028h 0040 008h]               Image Address : 00000000D34C2018
[030h 0048 004h]               Image OffsetX : 0000032A
[034h 0052 004h]               Image OffsetY : 0000014D

Raw Table Data: Length 56 (0x38)

    0000: 42 47 52 54 38 00 00 00 01 EB 51 43 4F 4D 20 20  // BGRT8.....QCOM  
    0010: 51 43 4F 4D 45 44 4B 32 80 83 00 00 51 43 4F 4D  // QCOMEDK2....QCOM
    0020: 01 00 00 00 01 00 00 00 18 20 4C D3 00 00 00 00  // ......... L.....
    0030: 2A 03 00 00 4D 01 00 00                          // *...M...
