/*
 * Intel ACPI Component Architecture
 * AML/ASL+ Disassembler version 20240827 (32-bit version)
 * Copyright (c) 2000 - 2023 Intel Corporation
 * 
 * Disassembly of D:/build/misc/qualcomm-snapdragon-dev-kit/acpi/xsdt.dat
 *
 * ACPI Data Table [XSDT]
 *
 * Format: [HexOffset DecimalOffset ByteLength]  FieldName : FieldValue (in hex)
 */

[000h 0000 004h]                   Signature : "XSDT"    [Extended System Description Table]
[004h 0004 004h]                Table Length : 0000009C
[008h 0008 001h]                    Revision : 01
[009h 0009 001h]                    Checksum : 1D
[00Ah 0010 006h]                      Oem ID : "QCOM  "
[010h 0016 008h]                Oem Table ID : "QCOMEDK2"
[018h 0024 004h]                Oem Revision : 00008380
[01Ch 0028 004h]             Asl Compiler ID : "QCOM"
[020h 0032 004h]       Asl Compiler Revision : 00000001

[024h 0036 008h]       ACPI Table Address   0 : 00000000D6EDEB98
[02Ch 0044 008h]       ACPI Table Address   1 : 00000000D6EDEB18
[034h 0052 008h]       ACPI Table Address   2 : 00000000D6ED2018
[03Ch 0060 008h]       ACPI Table Address   3 : 00000000D6EDE098
[044h 0068 008h]       ACPI Table Address   4 : 00000000D6EDED18
[04Ch 0076 008h]       ACPI Table Address   5 : 00000000D6E8F018
[054h 0084 008h]       ACPI Table Address   6 : 00000000D6E8E018
[05Ch 0092 008h]       ACPI Table Address   7 : 00000000D6EDEE18
[064h 0100 008h]       ACPI Table Address   8 : 00000000D6E8ED18
[06Ch 0108 008h]       ACPI Table Address   9 : 00000000D6EDE718
[074h 0116 008h]       ACPI Table Address  10 : 00000000D6EDEA98
[07Ch 0124 008h]       ACPI Table Address  11 : 00000000D6E8EF98
[084h 0132 008h]       ACPI Table Address  12 : 00000000D6EDE818
[08Ch 0140 008h]       ACPI Table Address  13 : 00000000D6EDEA18
[094h 0148 008h]       ACPI Table Address  14 : 00000000D6EDE898

Raw Table Data: Length 156 (0x9C)

    0000: 58 53 44 54 9C 00 00 00 01 1D 51 43 4F 4D 20 20  // XSDT......QCOM  
    0010: 51 43 4F 4D 45 44 4B 32 80 83 00 00 51 43 4F 4D  // QCOMEDK2....QCOM
    0020: 01 00 00 00 98 EB ED D6 00 00 00 00 18 EB ED D6  // ................
    0030: 00 00 00 00 18 20 ED D6 00 00 00 00 98 E0 ED D6  // ..... ..........
    0040: 00 00 00 00 18 ED ED D6 00 00 00 00 18 F0 E8 D6  // ................
    0050: 00 00 00 00 18 E0 E8 D6 00 00 00 00 18 EE ED D6  // ................
    0060: 00 00 00 00 18 ED E8 D6 00 00 00 00 18 E7 ED D6  // ................
    0070: 00 00 00 00 98 EA ED D6 00 00 00 00 98 EF E8 D6  // ................
    0080: 00 00 00 00 18 E8 ED D6 00 00 00 00 18 EA ED D6  // ................
    0090: 00 00 00 00 98 E8 ED D6 00 00 00 00              // ............
